target datalayout = "e-m:e-p270:32:32-p271:32:32-p272:64:64-i64:64-i128:128-f80:128-n8:16:32:64-S128"
target triple = "x86_64-pc-linux-gnu"

; Function Attrs: nounwind sspstrong uwtable
define hidden zeroext i16 @FLAC__crc16_update_words64(ptr noundef %0, i32 noundef %1, i16 noundef zeroext %2) #0 {
  %4 = alloca ptr, align 8
  %5 = alloca i32, align 4
  %6 = alloca i16, align 2
  store ptr %0, ptr %4, align 8, !tbaa !20
  store i32 %1, ptr %5, align 4, !tbaa !8
  store i16 %2, ptr %6, align 2, !tbaa !13
  br label %7

7:                                                ; preds = %11, %3
  %8 = load i32, ptr %5, align 4, !tbaa !8
  %9 = add i32 %8, -1
  store i32 %9, ptr %5, align 4, !tbaa !8
  %10 = icmp ne i32 %8, 0
  br i1 %10, label %11, label %91

11:                                               ; preds = %7
  %12 = load ptr, ptr %4, align 8, !tbaa !20
  %13 = getelementptr inbounds i64, ptr %12, i64 0
  %14 = load i64, ptr %13, align 8, !tbaa !22
  %15 = lshr i64 %14, 48
  %16 = load i16, ptr %6, align 2, !tbaa !13
  %17 = zext i16 %16 to i64
  %18 = xor i64 %17, %15
  %19 = trunc i64 %18 to i16
  store i16 %19, ptr %6, align 2, !tbaa !13
  %20 = load i16, ptr %6, align 2, !tbaa !13
  %21 = zext i16 %20 to i32
  %22 = ashr i32 %21, 8
  %23 = sext i32 %22 to i64
  %24 = getelementptr inbounds [256 x i16], ptr getelementptr inbounds ([8 x [256 x i16]], ptr @FLAC__crc16_table, i64 0, i64 7), i64 0, i64 %23
  %25 = load i16, ptr %24, align 2, !tbaa !13
  %26 = zext i16 %25 to i32
  %27 = load i16, ptr %6, align 2, !tbaa !13
  %28 = zext i16 %27 to i32
  %29 = and i32 %28, 255
  %30 = sext i32 %29 to i64
  %31 = getelementptr inbounds [256 x i16], ptr getelementptr inbounds ([8 x [256 x i16]], ptr @FLAC__crc16_table, i64 0, i64 6), i64 0, i64 %30
  %32 = load i16, ptr %31, align 2, !tbaa !13
  %33 = zext i16 %32 to i32
  %34 = xor i32 %26, %33
  %35 = load ptr, ptr %4, align 8, !tbaa !20
  %36 = getelementptr inbounds i64, ptr %35, i64 0
  %37 = load i64, ptr %36, align 8, !tbaa !22
  %38 = lshr i64 %37, 40
  %39 = and i64 %38, 255
  %40 = getelementptr inbounds nuw [256 x i16], ptr getelementptr inbounds ([8 x [256 x i16]], ptr @FLAC__crc16_table, i64 0, i64 5), i64 0, i64 %39
  %41 = load i16, ptr %40, align 2, !tbaa !13
  %42 = zext i16 %41 to i32
  %43 = xor i32 %34, %42
  %44 = load ptr, ptr %4, align 8, !tbaa !20
  %45 = getelementptr inbounds i64, ptr %44, i64 0
  %46 = load i64, ptr %45, align 8, !tbaa !22
  %47 = lshr i64 %46, 32
  %48 = and i64 %47, 255
  %49 = getelementptr inbounds nuw [256 x i16], ptr getelementptr inbounds ([8 x [256 x i16]], ptr @FLAC__crc16_table, i64 0, i64 4), i64 0, i64 %48
  %50 = load i16, ptr %49, align 2, !tbaa !13
  %51 = zext i16 %50 to i32
  %52 = xor i32 %43, %51
  %53 = load ptr, ptr %4, align 8, !tbaa !20
  %54 = getelementptr inbounds i64, ptr %53, i64 0
  %55 = load i64, ptr %54, align 8, !tbaa !22
  %56 = lshr i64 %55, 24
  %57 = and i64 %56, 255
  %58 = getelementptr inbounds nuw [256 x i16], ptr getelementptr inbounds ([8 x [256 x i16]], ptr @FLAC__crc16_table, i64 0, i64 3), i64 0, i64 %57
  %59 = load i16, ptr %58, align 2, !tbaa !13
  %60 = zext i16 %59 to i32
  %61 = xor i32 %52, %60
  %62 = load ptr, ptr %4, align 8, !tbaa !20
  %63 = getelementptr inbounds i64, ptr %62, i64 0
  %64 = load i64, ptr %63, align 8, !tbaa !22
  %65 = lshr i64 %64, 16
  %66 = and i64 %65, 255
  %67 = getelementptr inbounds nuw [256 x i16], ptr getelementptr inbounds ([8 x [256 x i16]], ptr @FLAC__crc16_table, i64 0, i64 2), i64 0, i64 %66
  %68 = load i16, ptr %67, align 2, !tbaa !13
  %69 = zext i16 %68 to i32
  %70 = xor i32 %61, %69
  %71 = load ptr, ptr %4, align 8, !tbaa !20
  %72 = getelementptr inbounds i64, ptr %71, i64 0
  %73 = load i64, ptr %72, align 8, !tbaa !22
  %74 = lshr i64 %73, 8
  %75 = and i64 %74, 255
  %76 = getelementptr inbounds nuw [256 x i16], ptr getelementptr inbounds ([8 x [256 x i16]], ptr @FLAC__crc16_table, i64 0, i64 1), i64 0, i64 %75
  %77 = load i16, ptr %76, align 2, !tbaa !13
  %78 = zext i16 %77 to i32
  %79 = xor i32 %70, %78
  %80 = load ptr, ptr %4, align 8, !tbaa !20
  %81 = getelementptr inbounds i64, ptr %80, i64 0
  %82 = load i64, ptr %81, align 8, !tbaa !22
  %83 = and i64 %82, 255
  %84 = getelementptr inbounds nuw [256 x i16], ptr @FLAC__crc16_table, i64 0, i64 %83
  %85 = load i16, ptr %84, align 2, !tbaa !13
  %86 = zext i16 %85 to i32
  %87 = xor i32 %79, %86
  %88 = trunc i32 %87 to i16
  store i16 %88, ptr %6, align 2, !tbaa !13
  %89 = load ptr, ptr %4, align 8, !tbaa !20
  %90 = getelementptr inbounds nuw i64, ptr %89, i32 1
  store ptr %90, ptr %4, align 8, !tbaa !20
  br label %7, !llvm.loop !24

91:                                               ; preds = %7
  %92 = load i16, ptr %6, align 2, !tbaa !13
  ret i16 %92
}