; Function Attrs: nofree norecurse nosync nounwind sspstrong memory(argmem: read) uwtable
define hidden zeroext i16 @FLAC__crc16_update_words64(ptr noundef readonly captures(none) %0, i32 noundef %1, i16 noundef zeroext %2) local_unnamed_addr #0 {
  %.not14 = icmp eq i32 %1, 0
  br i1 %.not14, label %._crit_edge, label %.lr.ph

.lr.ph:                                           ; preds = %3, %.lr.ph
  %.017 = phi i16 [ %47, %.lr.ph ], [ %2, %3 ]
  %.01216 = phi i32 [ %4, %.lr.ph ], [ %1, %3 ]
  %.01315 = phi ptr [ %48, %.lr.ph ], [ %0, %3 ]
  %4 = add i32 %.01216, -1
  %5 = load i64, ptr %.01315, align 8, !tbaa !15
  %6 = lshr i64 %5, 48
  %7 = trunc nuw i64 %6 to i16
  %8 = xor i16 %.017, %7
  %9 = zext i16 %8 to i32
  %10 = lshr i32 %9, 8
  %11 = zext nneg i32 %10 to i64
  %12 = getelementptr inbounds nuw [256 x i16], ptr getelementptr inbounds nuw (i8, ptr @FLAC__crc16_table, i64 3584), i64 0, i64 %11
  %13 = load i16, ptr %12, align 2, !tbaa !8
  %14 = and i32 %9, 255
  %15 = zext nneg i32 %14 to i64
  %16 = getelementptr inbounds nuw [256 x i16], ptr getelementptr inbounds nuw (i8, ptr @FLAC__crc16_table, i64 3072), i64 0, i64 %15
  %17 = load i16, ptr %16, align 2, !tbaa !8
  %18 = xor i16 %17, %13
  %19 = lshr i64 %5, 40
  %20 = and i64 %19, 255
  %21 = getelementptr inbounds nuw [256 x i16], ptr getelementptr inbounds nuw (i8, ptr @FLAC__crc16_table, i64 2560), i64 0, i64 %20
  %22 = load i16, ptr %21, align 2, !tbaa !8
  %23 = xor i16 %18, %22
  %24 = lshr i64 %5, 32
  %25 = and i64 %24, 255
  %26 = getelementptr inbounds nuw [256 x i16], ptr getelementptr inbounds nuw (i8, ptr @FLAC__crc16_table, i64 2048), i64 0, i64 %25
  %27 = load i16, ptr %26, align 2, !tbaa !8
  %28 = xor i16 %23, %27
  %29 = lshr i64 %5, 24
  %30 = and i64 %29, 255
  %31 = getelementptr inbounds nuw [256 x i16], ptr getelementptr inbounds nuw (i8, ptr @FLAC__crc16_table, i64 1536), i64 0, i64 %30
  %32 = load i16, ptr %31, align 2, !tbaa !8
  %33 = xor i16 %28, %32
  %34 = lshr i64 %5, 16
  %35 = and i64 %34, 255
  %36 = getelementptr inbounds nuw [256 x i16], ptr getelementptr inbounds nuw (i8, ptr @FLAC__crc16_table, i64 1024), i64 0, i64 %35
  %37 = load i16, ptr %36, align 2, !tbaa !8
  %38 = xor i16 %33, %37
  %39 = lshr i64 %5, 8
  %40 = and i64 %39, 255
  %41 = getelementptr inbounds nuw [256 x i16], ptr getelementptr inbounds nuw (i8, ptr @FLAC__crc16_table, i64 512), i64 0, i64 %40
  %42 = load i16, ptr %41, align 2, !tbaa !8
  %43 = xor i16 %38, %42
  %44 = and i64 %5, 255
  %45 = getelementptr inbounds nuw [256 x i16], ptr @FLAC__crc16_table, i64 0, i64 %44
  %46 = load i16, ptr %45, align 2, !tbaa !8
  %47 = xor i16 %43, %46
  %48 = getelementptr inbounds nuw i8, ptr %.01315, i64 8
  %.not = icmp eq i32 %4, 0
  br i1 %.not, label %._crit_edge, label %.lr.ph, !llvm.loop !17

._crit_edge:                                      ; preds = %.lr.ph, %3
  %.0.lcssa = phi i16 [ %2, %3 ], [ %47, %.lr.ph ]
  ret i16 %.0.lcssa
}